target datalayout = "e-m:e-p270:32:32-p271:32:32-p272:64:64-i64:64-i128:128-f80:128-n8:16:32:64-S128"
target triple = "x86_64-unknown-linux-gnu"

%"class.node::inspector::ProtocolHandler" = type { ptr, ptr, %"class.std::unique_ptr" }
%"class.std::unique_ptr" = type { %"struct.std::__uniq_ptr_data" }
%"struct.std::__uniq_ptr_data" = type { %"class.std::__uniq_ptr_impl" }
%"class.std::__uniq_ptr_impl" = type { %"class.std::tuple" }
%"class.std::tuple" = type { %"struct.std::_Tuple_impl" }
%"struct.std::_Tuple_impl" = type { %"struct.std::_Head_base.1" }
%"struct.std::_Head_base.1" = type { ptr }
%"class.std::__cxx11::basic_string" = type { %"struct.std::__cxx11::basic_string<char>::_Alloc_hider", i64, %union.anon.10 }
%"struct.std::__cxx11::basic_string<char>::_Alloc_hider" = type { ptr }
%union.anon.10 = type { i64, [8 x i8] }
%"class.node::inspector::(anonymous namespace)::HttpHandler" = type { %"class.node::inspector::ProtocolHandler", i8, %struct.llhttp__internal_s, %struct.llhttp_settings_s, %"class.std::vector.29", %"class.std::__cxx11::basic_string", %"class.std::map", %"class.std::__cxx11::basic_string" }
%struct.llhttp__internal_s = type { i32, ptr, ptr, i32, ptr, ptr, ptr, ptr, i64, i8, i8, i8, i8, i8, i16, i8, i8, i16, i16, i8, ptr }
%struct.llhttp_settings_s = type { ptr, ptr, ptr, ptr, ptr, ptr, ptr, ptr, ptr, ptr, ptr, ptr, ptr, ptr, ptr, ptr, ptr, ptr, ptr, ptr, ptr, ptr, ptr }
%"class.std::vector.29" = type { %"struct.std::_Vector_base.30" }
%"struct.std::_Vector_base.30" = type { %"struct.std::_Vector_base<node::inspector::(anonymous namespace)::HttpEvent, std::allocator<node::inspector::(anonymous namespace)::HttpEvent>>::_Vector_impl" }
%"struct.std::_Vector_base<node::inspector::(anonymous namespace)::HttpEvent, std::allocator<node::inspector::(anonymous namespace)::HttpEvent>>::_Vector_impl" = type { %"struct.std::_Vector_base<node::inspector::(anonymous namespace)::HttpEvent, std::allocator<node::inspector::(anonymous namespace)::HttpEvent>>::_Vector_impl_data" }
%"struct.std::_Vector_base<node::inspector::(anonymous namespace)::HttpEvent, std::allocator<node::inspector::(anonymous namespace)::HttpEvent>>::_Vector_impl_data" = type { ptr, ptr, ptr }
%"class.std::map" = type { %"class.std::_Rb_tree" }
%"class.std::_Rb_tree" = type { %"struct.std::_Rb_tree<std::__cxx11::basic_string<char>, std::pair<const std::__cxx11::basic_string<char>, std::__cxx11::basic_string<char>>, std::_Select1st<std::pair<const std::__cxx11::basic_string<char>, std::__cxx11::basic_string<char>>>, std::less<std::__cxx11::basic_string<char>>>::_Rb_tree_impl" }
%"struct.std::_Rb_tree<std::__cxx11::basic_string<char>, std::pair<const std::__cxx11::basic_string<char>, std::__cxx11::basic_string<char>>, std::_Select1st<std::pair<const std::__cxx11::basic_string<char>, std::__cxx11::basic_string<char>>>, std::less<std::__cxx11::basic_string<char>>>::_Rb_tree_impl" = type { %"struct.std::_Rb_tree_key_compare", %"struct.std::_Rb_tree_header" }
%"struct.std::_Rb_tree_key_compare" = type { %"struct.std::less" }
%"struct.std::less" = type { i8 }
%"struct.std::_Rb_tree_header" = type { %"struct.std::_Rb_tree_node_base", i64 }
%"struct.std::_Rb_tree_node_base" = type { i32, ptr, ptr, ptr }
%"class.node::ContainerOfHelper.38" = type { ptr }

; Function Attrs: mustprogress nounwind uwtable
define internal noundef i64 @_ZN4node8OffsetOfI18llhttp__internal_sNS_9inspector12_GLOBAL__N_111HttpHandlerEEEmMT0_T_(i64 %field) #0 {
entry:
  %field.addr = alloca i64, align 8
  store i64 %field, ptr %field.addr, align 8
  %0 = load i64, ptr %field.addr, align 8
  %memptr.offset = getelementptr inbounds i8, ptr null, i64 %0
  %1 = ptrtoint ptr %memptr.offset to i64
  ret i64 %1
}

; Function Attrs: mustprogress nounwind uwtable
define internal void @_ZN4node17ContainerOfHelperI18llhttp__internal_sNS_9inspector12_GLOBAL__N_111HttpHandlerEEC2EMS4_S1_PS1_(ptr noundef nonnull align 8 dereferenceable(8) %this, i64 %field, ptr noundef %pointer) unnamed_addr #0 align 2 {
entry:
  %this.addr = alloca ptr, align 8
  %field.addr = alloca i64, align 8
  %pointer.addr = alloca ptr, align 8
  store ptr %this, ptr %this.addr, align 8
  store i64 %field, ptr %field.addr, align 8
  store ptr %pointer, ptr %pointer.addr, align 8
  %this1 = load ptr, ptr %this.addr, align 8
  %pointer_ = getelementptr inbounds %"class.node::ContainerOfHelper.38", ptr %this1, i32 0, i32 0
  %0 = load ptr, ptr %pointer.addr, align 8
  %1 = ptrtoint ptr %0 to i64
  %2 = load i64, ptr %field.addr, align 8
  %call = call noundef i64 @_ZN4node8OffsetOfI18llhttp__internal_sNS_9inspector12_GLOBAL__N_111HttpHandlerEEEmMT0_T_(i64 %2)
  %sub = sub i64 %1, %call
  %3 = inttoptr i64 %sub to ptr
  store ptr %3, ptr %pointer_, align 8
  ret void
}

; Function Attrs: mustprogress nounwind uwtable
define internal noundef ptr @_ZNK4node17ContainerOfHelperI18llhttp__internal_sNS_9inspector12_GLOBAL__N_111HttpHandlerEEcvPT_IS4_EEv(ptr noundef nonnull align 8 dereferenceable(8) %this) #0 align 2 {
entry:
  %this.addr = alloca ptr, align 8
  store ptr %this, ptr %this.addr, align 8
  %this1 = load ptr, ptr %this.addr, align 8
  %pointer_ = getelementptr inbounds %"class.node::ContainerOfHelper.38", ptr %this1, i32 0, i32 0
  %0 = load ptr, ptr %pointer_, align 8
  ret ptr %0
}

; Function Attrs: mustprogress nounwind uwtable
define internal ptr @_ZN4node11ContainerOfI18llhttp__internal_sNS_9inspector12_GLOBAL__N_111HttpHandlerEEENS_17ContainerOfHelperIT_T0_EEMS7_S6_PS6_(i64 %field, ptr noundef %pointer) #0 {
entry:
  %retval = alloca %"class.node::ContainerOfHelper.38", align 8
  %field.addr = alloca i64, align 8
  %pointer.addr = alloca ptr, align 8
  store i64 %field, ptr %field.addr, align 8
  store ptr %pointer, ptr %pointer.addr, align 8
  %0 = load i64, ptr %field.addr, align 8
  %1 = load ptr, ptr %pointer.addr, align 8
  call void @_ZN4node17ContainerOfHelperI18llhttp__internal_sNS_9inspector12_GLOBAL__N_111HttpHandlerEEC2EMS4_S1_PS1_(ptr noundef nonnull align 8 dereferenceable(8) %retval, i64 %0, ptr noundef %1)
  %coerce.dive = getelementptr inbounds %"class.node::ContainerOfHelper.38", ptr %retval, i32 0, i32 0
  %2 = load ptr, ptr %coerce.dive, align 8
  ret ptr %2
}

; Function Attrs: mustprogress nounwind uwtable
define internal noundef ptr @_ZN4node9inspector12_GLOBAL__N_111HttpHandler4FromEP18llhttp__internal_s(ptr noundef %parser) #0 align 2 {
entry:
  %parser.addr = alloca ptr, align 8
  %ref.tmp = alloca %"class.node::ContainerOfHelper.38", align 8
  store ptr %parser, ptr %parser.addr, align 8
  %0 = load ptr, ptr %parser.addr, align 8
  %call = call ptr @_ZN4node11ContainerOfI18llhttp__internal_sNS_9inspector12_GLOBAL__N_111HttpHandlerEEENS_17ContainerOfHelperIT_T0_EEMS7_S6_PS6_(i64 32, ptr noundef %0)
  %coerce.dive = getelementptr inbounds %"class.node::ContainerOfHelper.38", ptr %ref.tmp, i32 0, i32 0
  store ptr %call, ptr %coerce.dive, align 8
  %call1 = call noundef ptr @_ZNK4node17ContainerOfHelperI18llhttp__internal_sNS_9inspector12_GLOBAL__N_111HttpHandlerEEcvPT_IS4_EEv(ptr noundef nonnull align 8 dereferenceable(8) %ref.tmp)
  ret ptr %call1
}

; Function Attrs: mustprogress nounwind uwtable
define internal noundef i32 @_ZN4node9inspector12_GLOBAL__N_111HttpHandler13OnHeaderFieldEP18llhttp__internal_sPKcm(ptr noundef %parser, ptr noundef %at, i64 noundef %length) #0 align 2 {
entry:
  %parser.addr = alloca ptr, align 8
  %at.addr = alloca ptr, align 8
  %length.addr = alloca i64, align 8
  %handler = alloca ptr, align 8
  store ptr %parser, ptr %parser.addr, align 8
  store ptr %at, ptr %at.addr, align 8
  store i64 %length, ptr %length.addr, align 8
  %0 = load ptr, ptr %parser.addr, align 8
  %call = call noundef ptr @_ZN4node9inspector12_GLOBAL__N_111HttpHandler4FromEP18llhttp__internal_s(ptr noundef %0)
  store ptr %call, ptr %handler, align 8
  %1 = load ptr, ptr %handler, align 8
  %parsing_value_ = getelementptr inbounds %"class.node::inspector::(anonymous namespace)::HttpHandler", ptr %1, i32 0, i32 1
  %2 = load i8, ptr %parsing_value_, align 8
  %tobool = trunc i8 %2 to i1
  br i1 %tobool, label %if.then, label %if.end

if.then:                                          ; preds = %entry
  %3 = load ptr, ptr %handler, align 8
  %parsing_value_1 = getelementptr inbounds %"class.node::inspector::(anonymous namespace)::HttpHandler", ptr %3, i32 0, i32 1
  store i8 0, ptr %parsing_value_1, align 8
  %4 = load ptr, ptr %handler, align 8
  %current_header_ = getelementptr inbounds %"class.node::inspector::(anonymous namespace)::HttpHandler", ptr %4, i32 0, i32 5
  call void @_ZNSt7__cxx1112basic_stringIcSt11char_traitsIcESaIcEE5clearEv(ptr noundef nonnull align 8 dereferenceable(32) %current_header_) #13
  br label %if.end

if.end:                                           ; preds = %if.then, %entry
  %5 = load ptr, ptr %handler, align 8
  %current_header_2 = getelementptr inbounds %"class.node::inspector::(anonymous namespace)::HttpHandler", ptr %5, i32 0, i32 5
  %6 = load ptr, ptr %at.addr, align 8
  %7 = load i64, ptr %length.addr, align 8
  %call3 = call noundef nonnull align 8 dereferenceable(32) ptr @_ZNSt7__cxx1112basic_stringIcSt11char_traitsIcESaIcEE6appendEPKcm(ptr noundef nonnull align 8 dereferenceable(32) %current_header_2, ptr noundef %6, i64 noundef %7)
  ret i32 0
}