; Function Attrs: mustprogress nounwind uwtable
define internal noundef i32 @_ZN4node9inspector12_GLOBAL__N_111HttpHandler13OnHeaderFieldEP18llhttp__internal_sPKcm(ptr noundef %parser, ptr noundef %at, i64 noundef %length) #0 align 2 {
entry:
  %0 = ptrtoint ptr %parser to i64
  %sub.i.i.i = add i64 %0, -32
  %1 = inttoptr i64 %sub.i.i.i to ptr
  %parsing_value_ = getelementptr inbounds i8, ptr %1, i64 24
  %2 = load i8, ptr %parsing_value_, align 8
  %3 = and i8 %2, 1
  %tobool.not = icmp eq i8 %3, 0
  br i1 %tobool.not, label %if.end, label %if.then

if.then:                                          ; preds = %entry
  store i8 0, ptr %parsing_value_, align 8
  %current_header_ = getelementptr inbounds i8, ptr %1, i64 336
  tail call void @_ZNSt7__cxx1112basic_stringIcSt11char_traitsIcESaIcEE5clearEv(ptr noundef nonnull align 8 dereferenceable(32) %current_header_) #19
  br label %if.end

if.end:                                           ; preds = %if.then, %entry
  %current_header_2 = getelementptr inbounds i8, ptr %1, i64 336
  %call3 = tail call noundef nonnull align 8 dereferenceable(32) ptr @_ZNSt7__cxx1112basic_stringIcSt11char_traitsIcESaIcEE6appendEPKcm(ptr noundef nonnull align 8 dereferenceable(32) %current_header_2, ptr noundef %at, i64 noundef %length) #19
  ret i32 0
}